target datalayout = "e-m:e-p270:32:32-p271:32:32-p272:64:64-i64:64-i128:128-f80:128-n8:16:32:64-S128"
target triple = "x86_64-pc-linux-gnu"

%"class.clang::QualType" = type { %"class.llvm::PointerIntPair.41" }
%"class.llvm::PointerIntPair.41" = type { %"struct.llvm::detail::PunnedPointer.42" }
%"struct.llvm::detail::PunnedPointer.42" = type { [8 x i8] }
%"class.clang::Stmt" = type { %union.anon.941 }
%union.anon.941 = type { %"class.clang::Stmt::PseudoObjectExprBitfields" }
%"class.clang::Stmt::PseudoObjectExprBitfields" = type { i64 }

; Function Attrs: mustprogress nounwind uwtable
define linkonce_odr hidden noundef i32 @_ZNK5clang8QualType16isDestructedTypeEv(ptr noundef nonnull align 8 dereferenceable(8) %0) #0 comdat align 2 {
  %2 = alloca ptr, align 8
  %3 = alloca %"class.clang::QualType", align 8
  store ptr %0, ptr %2, align 8
  %4 = load ptr, ptr %2, align 8
  call void @llvm.memcpy.p0.p0.i64(ptr align 8 %3, ptr align 8 %4, i64 8, i1 false)
  %5 = getelementptr inbounds nuw %"class.clang::QualType", ptr %3, i32 0, i32 0
  %6 = getelementptr inbounds nuw %"class.llvm::PointerIntPair.41", ptr %5, i32 0, i32 0
  %7 = getelementptr inbounds nuw %"struct.llvm::detail::PunnedPointer.42", ptr %6, i32 0, i32 0
  %8 = load i64, ptr %7, align 8
  %9 = call noundef i32 @_ZN5clang8QualType20isDestructedTypeImplES0_(i64 %8)
  ret i32 %9
}

; Function Attrs: mustprogress nounwind uwtable
define linkonce_odr hidden noundef zeroext i1 @_ZNK5clang13CXXDeleteExpr28doesUsualArrayDeleteWantSizeEv(ptr noundef nonnull align 8 dereferenceable(32) %0) #0 comdat align 2 {
  %2 = alloca ptr, align 8
  store ptr %0, ptr %2, align 8
  %3 = load ptr, ptr %2, align 8
  %4 = getelementptr inbounds nuw %"class.clang::Stmt", ptr %3, i32 0, i32 0
  %5 = load i32, ptr %4, align 8
  %6 = lshr i32 %5, 21
  %7 = and i32 %6, 1
  %8 = icmp ne i32 %7, 0
  ret i1 %8
}

; Function Attrs: mustprogress nounwind uwtable
define dso_local noundef zeroext i1 @_ZN5clang7CodeGen8CGCXXABI19requiresArrayCookieEPKNS_13CXXDeleteExprENS_8QualTypeE(ptr noundef nonnull align 8 dereferenceable(24) %0, ptr noundef %1, i64 %2) unnamed_addr #0 align 2 {
  %4 = alloca i1, align 1
  %5 = alloca %"class.clang::QualType", align 8
  %6 = alloca ptr, align 8
  %7 = alloca ptr, align 8
  %8 = getelementptr inbounds nuw %"class.clang::QualType", ptr %5, i32 0, i32 0
  %9 = getelementptr inbounds nuw %"class.llvm::PointerIntPair.41", ptr %8, i32 0, i32 0
  %10 = getelementptr inbounds nuw %"struct.llvm::detail::PunnedPointer.42", ptr %9, i32 0, i32 0
  store i64 %2, ptr %10, align 8
  store ptr %0, ptr %6, align 8
  store ptr %1, ptr %7, align 8
  %11 = load ptr, ptr %7, align 8
  %12 = call noundef zeroext i1 @_ZNK5clang13CXXDeleteExpr28doesUsualArrayDeleteWantSizeEv(ptr noundef nonnull align 8 dereferenceable(32) %11)
  br i1 %12, label %13, label %14

13:                                               ; preds = %3
  store i1 true, ptr %4, align 1
  br label %17

14:                                               ; preds = %3
  %15 = call noundef i32 @_ZNK5clang8QualType16isDestructedTypeEv(ptr noundef nonnull align 8 dereferenceable(8) %5)
  %16 = icmp ne i32 %15, 0
  store i1 %16, ptr %4, align 1
  br label %17

17:                                               ; preds = %14, %13
  %18 = load i1, ptr %4, align 1
  ret i1 %18
}