; Function Attrs: mustprogress nounwind uwtable
define dso_local noundef zeroext i1 @_ZN5clang7CodeGen8CGCXXABI19requiresArrayCookieEPKNS_13CXXDeleteExprENS_8QualTypeE(ptr nonnull readnone align 8 captures(none) %0, ptr noundef readonly captures(none) %1, i64 %2) unnamed_addr #0 align 2 {
  %4 = load i32, ptr %1, align 8
  %5 = and i32 %4, 2097152
  %.not = icmp eq i32 %5, 0
  br i1 %.not, label %6, label %9

6:                                                ; preds = %3
  %7 = tail call noundef i32 @_ZN5clang8QualType20isDestructedTypeImplES0_(i64 %2) #17
  %8 = icmp ne i32 %7, 0
  br label %9

9:                                                ; preds = %3, %6
  %.0 = phi i1 [ %8, %6 ], [ true, %3 ]
  ret i1 %.0
}